target datalayout = "e-m:e-p270:32:32-p271:32:32-p272:64:64-i64:64-i128:128-f80:128-n8:16:32:64-S128"
target triple = "x86_64-pc-linux-gnu"

%struct._proto_node = type { ptr, ptr, ptr, ptr, ptr, ptr, ptr }
%struct.field_info = type { ptr, i32, i32, i32, i32, i32, i32, ptr, ptr, ptr, i32, i32 }
%struct._header_field_info = type { ptr, ptr, i32, i32, ptr, i64, ptr, i32, i32, i32, i32, ptr }
%struct.write_json_data = type { ptr, ptr, i8, i8, ptr, ptr }

@.str.60 = private unnamed_addr constant [1 x i8] zeroinitializer, align 1
@.str.75 = private unnamed_addr constant [13 x i8] c"epan/print.c\00", align 1
@.str.76 = private unnamed_addr constant [31 x i8] c"assertion \22not reached\22 failed\00", align 1
@.str.90 = private unnamed_addr constant [5 x i8] c"\22%X\22\00", align 1
@.str.91 = private unnamed_addr constant [6 x i8] c"\22%lX\22\00", align 1
@__func__.write_json_proto_node_hex_dump = private unnamed_addr constant [31 x i8] c"write_json_proto_node_hex_dump\00", align 1
@.str.92 = private unnamed_addr constant [3 x i8] c"%d\00", align 1
@.str.93 = private unnamed_addr constant [4 x i8] c"%lu\00", align 1

; Function Attrs: null_pointer_is_valid sspstrong uwtable
define internal void @write_json_proto_node_hex_dump(ptr noundef %0, ptr noundef %1) #0 {
  %3 = alloca ptr, align 8
  %4 = alloca ptr, align 8
  %5 = alloca ptr, align 8
  store ptr %0, ptr %3, align 8
  store ptr %1, ptr %4, align 8
  call void @llvm.lifetime.start.p0(i64 8, ptr %5) #15
  %6 = load ptr, ptr %3, align 8
  %7 = getelementptr inbounds nuw %struct._proto_node, ptr %6, i32 0, i32 5
  %8 = load ptr, ptr %7, align 8
  store ptr %8, ptr %5, align 8
  %9 = load ptr, ptr %4, align 8
  %10 = getelementptr inbounds nuw %struct.write_json_data, ptr %9, i32 0, i32 5
  %11 = load ptr, ptr %10, align 8
  call void @json_dumper_begin_array(ptr noundef %11)
  %12 = load ptr, ptr %5, align 8
  %13 = getelementptr inbounds nuw %struct.field_info, ptr %12, i32 0, i32 0
  %14 = load ptr, ptr %13, align 8
  %15 = getelementptr inbounds nuw %struct._header_field_info, ptr %14, i32 0, i32 5
  %16 = load i64, ptr %15, align 8
  %17 = icmp ne i64 %16, 0
  br i1 %17, label %18, label %57

18:                                               ; preds = %2
  %19 = load ptr, ptr %5, align 8
  %20 = getelementptr inbounds nuw %struct.field_info, ptr %19, i32 0, i32 9
  %21 = load ptr, ptr %20, align 8
  %22 = call i32 @fvalue_type_ftenum(ptr noundef %21)
  switch i32 %22, label %55 [
    i32 12, label %23
    i32 13, label %23
    i32 14, label %23
    i32 15, label %23
    i32 3, label %31
    i32 4, label %31
    i32 5, label %31
    i32 6, label %31
    i32 7, label %31
    i32 16, label %39
    i32 17, label %39
    i32 18, label %39
    i32 19, label %39
    i32 8, label %47
    i32 9, label %47
    i32 10, label %47
    i32 11, label %47
    i32 2, label %47
  ]

23:                                               ; preds = %18, %18, %18, %18
  %24 = load ptr, ptr %4, align 8
  %25 = getelementptr inbounds nuw %struct.write_json_data, ptr %24, i32 0, i32 5
  %26 = load ptr, ptr %25, align 8
  %27 = load ptr, ptr %5, align 8
  %28 = getelementptr inbounds nuw %struct.field_info, ptr %27, i32 0, i32 9
  %29 = load ptr, ptr %28, align 8
  %30 = call i32 @fvalue_get_sinteger(ptr noundef %29)
  call void (ptr, ptr, ...) @json_dumper_value_anyf(ptr noundef %26, ptr noundef @.str.90, i32 noundef %30)
  br label %56

31:                                               ; preds = %18, %18, %18, %18, %18
  %32 = load ptr, ptr %4, align 8
  %33 = getelementptr inbounds nuw %struct.write_json_data, ptr %32, i32 0, i32 5
  %34 = load ptr, ptr %33, align 8
  %35 = load ptr, ptr %5, align 8
  %36 = getelementptr inbounds nuw %struct.field_info, ptr %35, i32 0, i32 9
  %37 = load ptr, ptr %36, align 8
  %38 = call i32 @fvalue_get_uinteger(ptr noundef %37)
  call void (ptr, ptr, ...) @json_dumper_value_anyf(ptr noundef %34, ptr noundef @.str.90, i32 noundef %38)
  br label %56

39:                                               ; preds = %18, %18, %18, %18
  %40 = load ptr, ptr %4, align 8
  %41 = getelementptr inbounds nuw %struct.write_json_data, ptr %40, i32 0, i32 5
  %42 = load ptr, ptr %41, align 8
  %43 = load ptr, ptr %5, align 8
  %44 = getelementptr inbounds nuw %struct.field_info, ptr %43, i32 0, i32 9
  %45 = load ptr, ptr %44, align 8
  %46 = call i64 @fvalue_get_sinteger64(ptr noundef %45)
  call void (ptr, ptr, ...) @json_dumper_value_anyf(ptr noundef %42, ptr noundef @.str.91, i64 noundef %46)
  br label %56

47:                                               ; preds = %18, %18, %18, %18, %18
  %48 = load ptr, ptr %4, align 8
  %49 = getelementptr inbounds nuw %struct.write_json_data, ptr %48, i32 0, i32 5
  %50 = load ptr, ptr %49, align 8
  %51 = load ptr, ptr %5, align 8
  %52 = getelementptr inbounds nuw %struct.field_info, ptr %51, i32 0, i32 9
  %53 = load ptr, ptr %52, align 8
  %54 = call i64 @fvalue_get_uinteger64(ptr noundef %53)
  call void (ptr, ptr, ...) @json_dumper_value_anyf(ptr noundef %50, ptr noundef @.str.91, i64 noundef %54)
  br label %56

55:                                               ; preds = %18
  call void (ptr, i32, ptr, i64, ptr, ptr, ...) @ws_log_fatal_full(ptr noundef @.str.60, i32 noundef 7, ptr noundef @.str.75, i64 noundef 997, ptr noundef @__func__.write_json_proto_node_hex_dump, ptr noundef @.str.76) #17
  unreachable

56:                                               ; preds = %47, %39, %31, %23
  br label %60

57:                                               ; preds = %2
  %58 = load ptr, ptr %4, align 8
  %59 = load ptr, ptr %5, align 8
  call void @json_write_field_hex_value(ptr noundef %58, ptr noundef %59)
  br label %60

60:                                               ; preds = %57, %56
  %61 = load ptr, ptr %4, align 8
  %62 = getelementptr inbounds nuw %struct.write_json_data, ptr %61, i32 0, i32 5
  %63 = load ptr, ptr %62, align 8
  %64 = load ptr, ptr %5, align 8
  %65 = getelementptr inbounds nuw %struct.field_info, ptr %64, i32 0, i32 1
  %66 = load i32, ptr %65, align 8
  call void (ptr, ptr, ...) @json_dumper_value_anyf(ptr noundef %63, ptr noundef @.str.92, i32 noundef %66)
  %67 = load ptr, ptr %4, align 8
  %68 = getelementptr inbounds nuw %struct.write_json_data, ptr %67, i32 0, i32 5
  %69 = load ptr, ptr %68, align 8
  %70 = load ptr, ptr %5, align 8
  %71 = getelementptr inbounds nuw %struct.field_info, ptr %70, i32 0, i32 2
  %72 = load i32, ptr %71, align 4
  call void (ptr, ptr, ...) @json_dumper_value_anyf(ptr noundef %69, ptr noundef @.str.92, i32 noundef %72)
  %73 = load ptr, ptr %4, align 8
  %74 = getelementptr inbounds nuw %struct.write_json_data, ptr %73, i32 0, i32 5
  %75 = load ptr, ptr %74, align 8
  %76 = load ptr, ptr %5, align 8
  %77 = getelementptr inbounds nuw %struct.field_info, ptr %76, i32 0, i32 0
  %78 = load ptr, ptr %77, align 8
  %79 = getelementptr inbounds nuw %struct._header_field_info, ptr %78, i32 0, i32 5
  %80 = load i64, ptr %79, align 8
  call void (ptr, ptr, ...) @json_dumper_value_anyf(ptr noundef %75, ptr noundef @.str.93, i64 noundef %80)
  %81 = load ptr, ptr %4, align 8
  %82 = getelementptr inbounds nuw %struct.write_json_data, ptr %81, i32 0, i32 5
  %83 = load ptr, ptr %82, align 8
  %84 = load ptr, ptr %5, align 8
  %85 = getelementptr inbounds nuw %struct.field_info, ptr %84, i32 0, i32 9
  %86 = load ptr, ptr %85, align 8
  %87 = call i32 @fvalue_type_ftenum(ptr noundef %86)
  call void (ptr, ptr, ...) @json_dumper_value_anyf(ptr noundef %83, ptr noundef @.str.92, i32 noundef %87)
  %88 = load ptr, ptr %4, align 8
  %89 = getelementptr inbounds nuw %struct.write_json_data, ptr %88, i32 0, i32 5
  %90 = load ptr, ptr %89, align 8
  call void @json_dumper_end_array(ptr noundef %90)
  call void @llvm.lifetime.end.p0(i64 8, ptr %5) #15
  ret void
}