; Function Attrs: null_pointer_is_valid sspstrong uwtable
define internal void @write_json_proto_node_hex_dump(ptr noundef readonly captures(none) %0, ptr noundef readonly captures(none) %1) #0 {
  %3 = getelementptr inbounds nuw i8, ptr %0, i64 40
  %4 = load ptr, ptr %3, align 8
  %5 = getelementptr inbounds nuw i8, ptr %1, i64 32
  %6 = load ptr, ptr %5, align 8
  tail call void @json_dumper_begin_array(ptr noundef %6)
  %7 = load ptr, ptr %4, align 8
  %8 = getelementptr inbounds nuw i8, ptr %7, i64 32
  %9 = load i64, ptr %8, align 8
  %.not = icmp eq i64 %9, 0
  br i1 %.not, label %31, label %10

10:                                               ; preds = %2
  %11 = getelementptr inbounds nuw i8, ptr %4, i64 48
  %12 = load ptr, ptr %11, align 8
  %13 = tail call i32 @fvalue_type_ftenum(ptr noundef %12)
  switch i32 %13, label %30 [
    i32 12, label %14
    i32 13, label %14
    i32 14, label %14
    i32 15, label %14
    i32 3, label %18
    i32 4, label %18
    i32 5, label %18
    i32 6, label %18
    i32 7, label %18
    i32 16, label %22
    i32 17, label %22
    i32 18, label %22
    i32 19, label %22
    i32 8, label %26
    i32 9, label %26
    i32 10, label %26
    i32 11, label %26
    i32 2, label %26
  ]

14:                                               ; preds = %10, %10, %10, %10
  %15 = load ptr, ptr %5, align 8
  %16 = load ptr, ptr %11, align 8
  %17 = tail call i32 @fvalue_get_sinteger(ptr noundef %16)
  tail call void (ptr, ptr, ...) @json_dumper_value_anyf(ptr noundef %15, ptr noundef nonnull @.str.90, i32 noundef %17)
  br label %32

18:                                               ; preds = %10, %10, %10, %10, %10
  %19 = load ptr, ptr %5, align 8
  %20 = load ptr, ptr %11, align 8
  %21 = tail call i32 @fvalue_get_uinteger(ptr noundef %20)
  tail call void (ptr, ptr, ...) @json_dumper_value_anyf(ptr noundef %19, ptr noundef nonnull @.str.90, i32 noundef %21)
  br label %32

22:                                               ; preds = %10, %10, %10, %10
  %23 = load ptr, ptr %5, align 8
  %24 = load ptr, ptr %11, align 8
  %25 = tail call i64 @fvalue_get_sinteger64(ptr noundef %24)
  tail call void (ptr, ptr, ...) @json_dumper_value_anyf(ptr noundef %23, ptr noundef nonnull @.str.91, i64 noundef %25)
  br label %32

26:                                               ; preds = %10, %10, %10, %10, %10
  %27 = load ptr, ptr %5, align 8
  %28 = load ptr, ptr %11, align 8
  %29 = tail call i64 @fvalue_get_uinteger64(ptr noundef %28)
  tail call void (ptr, ptr, ...) @json_dumper_value_anyf(ptr noundef %27, ptr noundef nonnull @.str.91, i64 noundef %29)
  br label %32

30:                                               ; preds = %10
  tail call void (ptr, i32, ptr, i64, ptr, ptr, ...) @ws_log_fatal_full(ptr noundef nonnull @.str.60, i32 noundef 7, ptr noundef nonnull @.str.75, i64 noundef 997, ptr noundef nonnull @__func__.write_json_proto_node_hex_dump, ptr noundef nonnull @.str.76) #23
  unreachable

31:                                               ; preds = %2
  tail call fastcc void @json_write_field_hex_value(ptr noundef %1, ptr noundef %4)
  br label %32

32:                                               ; preds = %14, %18, %22, %26, %31
  %33 = load ptr, ptr %5, align 8
  %34 = getelementptr inbounds nuw i8, ptr %4, i64 8
  %35 = load i32, ptr %34, align 8
  tail call void (ptr, ptr, ...) @json_dumper_value_anyf(ptr noundef %33, ptr noundef nonnull @.str.92, i32 noundef %35)
  %36 = load ptr, ptr %5, align 8
  %37 = getelementptr inbounds nuw i8, ptr %4, i64 12
  %38 = load i32, ptr %37, align 4
  tail call void (ptr, ptr, ...) @json_dumper_value_anyf(ptr noundef %36, ptr noundef nonnull @.str.92, i32 noundef %38)
  %39 = load ptr, ptr %5, align 8
  %40 = load ptr, ptr %4, align 8
  %41 = getelementptr inbounds nuw i8, ptr %40, i64 32
  %42 = load i64, ptr %41, align 8
  tail call void (ptr, ptr, ...) @json_dumper_value_anyf(ptr noundef %39, ptr noundef nonnull @.str.93, i64 noundef %42)
  %43 = load ptr, ptr %5, align 8
  %44 = getelementptr inbounds nuw i8, ptr %4, i64 48
  %45 = load ptr, ptr %44, align 8
  %46 = tail call i32 @fvalue_type_ftenum(ptr noundef %45)
  tail call void (ptr, ptr, ...) @json_dumper_value_anyf(ptr noundef %43, ptr noundef nonnull @.str.92, i32 noundef %46)
  %47 = load ptr, ptr %5, align 8
  tail call void @json_dumper_end_array(ptr noundef %47)
  ret void
}